; ModuleID = '31/518.c'
source_filename = "31/518.c"
target datalayout = "e-m:e-p270:32:32-p271:32:32-p272:64:64-i64:64-f80:128-n8:16:32:64-S128"
target triple = "x86_64-pc-linux-gnu"

%struct.stu = type { [20 x i8], [30 x i8], i8, i32, [10 x i8], [20 x i8], %struct.stu* }

@.str = private unnamed_addr constant [3 x i8] c"%s\00", align 1
@.str.1 = private unnamed_addr constant [15 x i8] c"%s %c %d %s %s\00", align 1
@.str.2 = private unnamed_addr constant [19 x i8] c"%s %s %c %d %s %s\0A\00", align 1

; Function Attrs: noinline nounwind uwtable
define dso_local i32 @main() #0 {
  %1 = alloca i32, align 4
  %2 = alloca [10000 x %struct.stu], align 16
  %3 = alloca %struct.stu*, align 8
  %4 = alloca i32, align 4
  store i32 0, i32* %1, align 4
  store i32 0, i32* %4, align 4
  %5 = getelementptr inbounds [10000 x %struct.stu], [10000 x %struct.stu]* %2, i64 0, i64 0
  %6 = getelementptr inbounds %struct.stu, %struct.stu* %5, i32 0, i32 6
  store %struct.stu* null, %struct.stu** %6, align 8
  br label %7

7:                                                ; preds = %65, %0
  %8 = load i32, i32* %4, align 4
  %9 = sext i32 %8 to i64
  %10 = getelementptr inbounds [10000 x %struct.stu], [10000 x %struct.stu]* %2, i64 0, i64 %9
  %11 = getelementptr inbounds %struct.stu, %struct.stu* %10, i32 0, i32 0
  %12 = getelementptr inbounds [20 x i8], [20 x i8]* %11, i64 0, i64 0
  %13 = call i32 (i8*, ...) @__isoc99_scanf(i8* getelementptr inbounds ([3 x i8], [3 x i8]* @.str, i64 0, i64 0), i8* %12)
  %14 = load i32, i32* %4, align 4
  %15 = sext i32 %14 to i64
  %16 = getelementptr inbounds [10000 x %struct.stu], [10000 x %struct.stu]* %2, i64 0, i64 %15
  %17 = getelementptr inbounds %struct.stu, %struct.stu* %16, i32 0, i32 0
  %18 = getelementptr inbounds [20 x i8], [20 x i8]* %17, i64 0, i64 0
  %19 = load i8, i8* %18, align 16
  %20 = sext i8 %19 to i32
  %21 = icmp eq i32 %20, 101
  br i1 %21, label %22, label %23

22:                                               ; preds = %7
  br label %68

23:                                               ; preds = %7
  %24 = load i32, i32* %4, align 4
  %25 = sext i32 %24 to i64
  %26 = getelementptr inbounds [10000 x %struct.stu], [10000 x %struct.stu]* %2, i64 0, i64 %25
  %27 = getelementptr inbounds %struct.stu, %struct.stu* %26, i32 0, i32 1
  %28 = getelementptr inbounds [30 x i8], [30 x i8]* %27, i64 0, i64 0
  %29 = load i32, i32* %4, align 4
  %30 = sext i32 %29 to i64
  %31 = getelementptr inbounds [10000 x %struct.stu], [10000 x %struct.stu]* %2, i64 0, i64 %30
  %32 = getelementptr inbounds %struct.stu, %struct.stu* %31, i32 0, i32 2
  %33 = load i32, i32* %4, align 4
  %34 = sext i32 %33 to i64
  %35 = getelementptr inbounds [10000 x %struct.stu], [10000 x %struct.stu]* %2, i64 0, i64 %34
  %36 = getelementptr inbounds %struct.stu, %struct.stu* %35, i32 0, i32 3
  %37 = load i32, i32* %4, align 4
  %38 = sext i32 %37 to i64
  %39 = getelementptr inbounds [10000 x %struct.stu], [10000 x %struct.stu]* %2, i64 0, i64 %38
  %40 = getelementptr inbounds %struct.stu, %struct.stu* %39, i32 0, i32 4
  %41 = getelementptr inbounds [10 x i8], [10 x i8]* %40, i64 0, i64 0
  %42 = load i32, i32* %4, align 4
  %43 = sext i32 %42 to i64
  %44 = getelementptr inbounds [10000 x %struct.stu], [10000 x %struct.stu]* %2, i64 0, i64 %43
  %45 = getelementptr inbounds %struct.stu, %struct.stu* %44, i32 0, i32 5
  %46 = getelementptr inbounds [20 x i8], [20 x i8]* %45, i64 0, i64 0
  %47 = call i32 (i8*, ...) @__isoc99_scanf(i8* getelementptr inbounds ([15 x i8], [15 x i8]* @.str.1, i64 0, i64 0), i8* %28, i8* %32, i32* %36, i8* %41, i8* %46)
  %48 = load i32, i32* %4, align 4
  %49 = icmp sgt i32 %48, 0
  br i1 %49, label %50, label %60

50:                                               ; preds = %23
  %51 = getelementptr inbounds [10000 x %struct.stu], [10000 x %struct.stu]* %2, i64 0, i64 0
  %52 = load i32, i32* %4, align 4
  %53 = sext i32 %52 to i64
  %54 = getelementptr inbounds %struct.stu, %struct.stu* %51, i64 %53
  %55 = getelementptr inbounds %struct.stu, %struct.stu* %54, i64 -1
  %56 = load i32, i32* %4, align 4
  %57 = sext i32 %56 to i64
  %58 = getelementptr inbounds [10000 x %struct.stu], [10000 x %struct.stu]* %2, i64 0, i64 %57
  %59 = getelementptr inbounds %struct.stu, %struct.stu* %58, i32 0, i32 6
  store %struct.stu* %55, %struct.stu** %59, align 8
  br label %60

60:                                               ; preds = %50, %23
  %61 = getelementptr inbounds [10000 x %struct.stu], [10000 x %struct.stu]* %2, i64 0, i64 0
  %62 = load i32, i32* %4, align 4
  %63 = sext i32 %62 to i64
  %64 = getelementptr inbounds %struct.stu, %struct.stu* %61, i64 %63
  store %struct.stu* %64, %struct.stu** %3, align 8
  br label %65

65:                                               ; preds = %60
  %66 = load i32, i32* %4, align 4
  %67 = add nsw i32 %66, 1
  store i32 %67, i32* %4, align 4
  br label %7

68:                                               ; preds = %22
  br label %69

69:                                               ; preds = %72, %68
  %70 = load %struct.stu*, %struct.stu** %3, align 8
  %71 = icmp ne %struct.stu* %70, null
  br i1 %71, label %72, label %96

72:                                               ; preds = %69
  %73 = load %struct.stu*, %struct.stu** %3, align 8
  %74 = getelementptr inbounds %struct.stu, %struct.stu* %73, i32 0, i32 0
  %75 = getelementptr inbounds [20 x i8], [20 x i8]* %74, i64 0, i64 0
  %76 = load %struct.stu*, %struct.stu** %3, align 8
  %77 = getelementptr inbounds %struct.stu, %struct.stu* %76, i32 0, i32 1
  %78 = getelementptr inbounds [30 x i8], [30 x i8]* %77, i64 0, i64 0
  %79 = load %struct.stu*, %struct.stu** %3, align 8
  %80 = getelementptr inbounds %struct.stu, %struct.stu* %79, i32 0, i32 2
  %81 = load i8, i8* %80, align 2
  %82 = sext i8 %81 to i32
  %83 = load %struct.stu*, %struct.stu** %3, align 8
  %84 = getelementptr inbounds %struct.stu, %struct.stu* %83, i32 0, i32 3
  %85 = load i32, i32* %84, align 4
  %86 = load %struct.stu*, %struct.stu** %3, align 8
  %87 = getelementptr inbounds %struct.stu, %struct.stu* %86, i32 0, i32 4
  %88 = getelementptr inbounds [10 x i8], [10 x i8]* %87, i64 0, i64 0
  %89 = load %struct.stu*, %struct.stu** %3, align 8
  %90 = getelementptr inbounds %struct.stu, %struct.stu* %89, i32 0, i32 5
  %91 = getelementptr inbounds [20 x i8], [20 x i8]* %90, i64 0, i64 0
  %92 = call i32 (i8*, ...) @printf(i8* getelementptr inbounds ([19 x i8], [19 x i8]* @.str.2, i64 0, i64 0), i8* %75, i8* %78, i32 %82, i32 %85, i8* %88, i8* %91)
  %93 = load %struct.stu*, %struct.stu** %3, align 8
  %94 = getelementptr inbounds %struct.stu, %struct.stu* %93, i32 0, i32 6
  %95 = load %struct.stu*, %struct.stu** %94, align 8
  store %struct.stu* %95, %struct.stu** %3, align 8
  br label %69

96:                                               ; preds = %69
  %97 = load i32, i32* %1, align 4
  ret i32 %97
}

declare dso_local i32 @__isoc99_scanf(i8*, ...) #1

declare dso_local i32 @printf(i8*, ...) #1


!llvm.module.flags = !{!0}
!llvm.ident = !{!1}

!0 = !{i32 1, !"wchar_size", i32 4}
!1 = !{!"clang version 10.0.0-4ubuntu1 "}
